target datalayout = "e-m:e-p270:32:32-p271:32:32-p272:64:64-i64:64-i128:128-f80:128-n8:16:32:64-S128"
target triple = "x86_64-pc-linux-gnu"

%struct.dwt_params_t = type { ptr, i32, i32, i32, i32, i32, i32, ptr, float }

; Function Attrs: nounwind uwtable
define internal i32 @_get_max_scale(i32 noundef %0, i32 noundef %1, float noundef %2) #0 {
  %4 = alloca i32, align 4
  %5 = alloca i32, align 4
  %6 = alloca float, align 4
  %7 = alloca i32, align 4
  %8 = alloca i32, align 4
  %9 = alloca float, align 4
  store i32 %0, ptr %4, align 4, !tbaa !11
  store i32 %1, ptr %5, align 4, !tbaa !11
  store float %2, ptr %6, align 4, !tbaa !14
  call void @llvm.lifetime.start.p0(i64 4, ptr %7) #10
  store i32 0, ptr %7, align 4, !tbaa !11
  call void @llvm.lifetime.start.p0(i64 4, ptr %8) #10
  %10 = load i32, ptr %4, align 4, !tbaa !11
  %11 = load i32, ptr %5, align 4, !tbaa !11
  %12 = icmp slt i32 %10, %11
  br i1 %12, label %13, label %15

13:                                               ; preds = %3
  %14 = load i32, ptr %4, align 4, !tbaa !11
  br label %17

15:                                               ; preds = %3
  %16 = load i32, ptr %5, align 4, !tbaa !11
  br label %17

17:                                               ; preds = %15, %13
  %18 = phi i32 [ %14, %13 ], [ %16, %15 ]
  store i32 %18, ptr %8, align 4, !tbaa !11
  call void @llvm.lifetime.start.p0(i64 4, ptr %9) #10
  %19 = load i32, ptr %8, align 4, !tbaa !11
  %20 = lshr i32 %19, 1
  store i32 %20, ptr %8, align 4, !tbaa !11
  %21 = uitofp i32 %20 to float
  %22 = load float, ptr %6, align 4, !tbaa !14
  %23 = fmul reassoc nsz arcp contract afn float %21, %22
  store float %23, ptr %9, align 4, !tbaa !14
  br label %24

24:                                               ; preds = %27, %17
  %25 = load float, ptr %9, align 4, !tbaa !14
  %26 = fcmp reassoc nsz arcp contract afn ogt float %25, 0.000000e+00
  br i1 %26, label %27, label %35

27:                                               ; preds = %24
  %28 = load i32, ptr %8, align 4, !tbaa !11
  %29 = lshr i32 %28, 1
  store i32 %29, ptr %8, align 4, !tbaa !11
  %30 = uitofp i32 %29 to float
  %31 = load float, ptr %6, align 4, !tbaa !14
  %32 = fmul reassoc nsz arcp contract afn float %30, %31
  store float %32, ptr %9, align 4, !tbaa !14
  %33 = load i32, ptr %7, align 4, !tbaa !11
  %34 = add nsw i32 %33, 1
  store i32 %34, ptr %7, align 4, !tbaa !11
  br label %24

35:                                               ; preds = %24
  %36 = load i32, ptr %4, align 4, !tbaa !11
  %37 = load i32, ptr %5, align 4, !tbaa !11
  %38 = icmp slt i32 %36, %37
  br i1 %38, label %39, label %41

39:                                               ; preds = %35
  %40 = load i32, ptr %4, align 4, !tbaa !11
  br label %43

41:                                               ; preds = %35
  %42 = load i32, ptr %5, align 4, !tbaa !11
  br label %43

43:                                               ; preds = %41, %39
  %44 = phi i32 [ %40, %39 ], [ %42, %41 ]
  store i32 %44, ptr %8, align 4, !tbaa !11
  br label %45

45:                                               ; preds = %59, %43
  %46 = load i32, ptr %7, align 4, !tbaa !11
  %47 = icmp sgt i32 %46, 0
  br i1 %47, label %48, label %57

48:                                               ; preds = %45
  %49 = load i32, ptr %7, align 4, !tbaa !11
  %50 = shl i32 1, %49
  %51 = sitofp i32 %50 to float
  %52 = load float, ptr %6, align 4, !tbaa !14
  %53 = fmul reassoc nsz arcp contract afn float %51, %52
  %54 = load i32, ptr %8, align 4, !tbaa !11
  %55 = uitofp i32 %54 to float
  %56 = fcmp reassoc nsz arcp contract afn oge float %53, %55
  br label %57

57:                                               ; preds = %48, %45
  %58 = phi i1 [ false, %45 ], [ %56, %48 ]
  br i1 %58, label %59, label %62

59:                                               ; preds = %57
  %60 = load i32, ptr %7, align 4, !tbaa !11
  %61 = add nsw i32 %60, -1
  store i32 %61, ptr %7, align 4, !tbaa !11
  br label %45

62:                                               ; preds = %57
  %63 = load i32, ptr %7, align 4, !tbaa !11
  call void @llvm.lifetime.end.p0(i64 4, ptr %9) #10
  call void @llvm.lifetime.end.p0(i64 4, ptr %8) #10
  call void @llvm.lifetime.end.p0(i64 4, ptr %7) #10
  ret i32 %63
}

; Function Attrs: nounwind uwtable
define i32 @dwt_get_max_scale(ptr noundef %0) #0 {
  %2 = alloca ptr, align 8
  store ptr %0, ptr %2, align 8, !tbaa !16
  %3 = load ptr, ptr %2, align 8, !tbaa !16
  %4 = getelementptr inbounds nuw %struct.dwt_params_t, ptr %3, i32 0, i32 2
  %5 = load i32, ptr %4, align 4, !tbaa !21
  %6 = sitofp i32 %5 to float
  %7 = load ptr, ptr %2, align 8, !tbaa !16
  %8 = getelementptr inbounds nuw %struct.dwt_params_t, ptr %7, i32 0, i32 8
  %9 = load float, ptr %8, align 8, !tbaa !27
  %10 = fdiv reassoc nsz arcp contract afn float %6, %9
  %11 = fptosi float %10 to i32
  %12 = load ptr, ptr %2, align 8, !tbaa !16
  %13 = getelementptr inbounds nuw %struct.dwt_params_t, ptr %12, i32 0, i32 3
  %14 = load i32, ptr %13, align 8, !tbaa !22
  %15 = sitofp i32 %14 to float
  %16 = load ptr, ptr %2, align 8, !tbaa !16
  %17 = getelementptr inbounds nuw %struct.dwt_params_t, ptr %16, i32 0, i32 8
  %18 = load float, ptr %17, align 8, !tbaa !27
  %19 = fdiv reassoc nsz arcp contract afn float %15, %18
  %20 = fptosi float %19 to i32
  %21 = load ptr, ptr %2, align 8, !tbaa !16
  %22 = getelementptr inbounds nuw %struct.dwt_params_t, ptr %21, i32 0, i32 8
  %23 = load float, ptr %22, align 8, !tbaa !27
  %24 = call i32 @_get_max_scale(i32 noundef %11, i32 noundef %20, float noundef %23)
  ret i32 %24
}