; Function Attrs: nofree norecurse nosync nounwind memory(argmem: read) uwtable
define i32 @dwt_get_max_scale(ptr noundef readonly captures(none) %0) local_unnamed_addr #5 {
  %2 = getelementptr inbounds nuw i8, ptr %0, i64 12
  %3 = load i32, ptr %2, align 4, !tbaa !15
  %4 = sitofp i32 %3 to float
  %5 = getelementptr inbounds nuw i8, ptr %0, i64 40
  %6 = load float, ptr %5, align 8, !tbaa !21
  %7 = fdiv reassoc nsz arcp contract afn float %4, %6
  %8 = fptosi float %7 to i32
  %9 = getelementptr inbounds nuw i8, ptr %0, i64 16
  %10 = load i32, ptr %9, align 8, !tbaa !16
  %11 = sitofp i32 %10 to float
  %12 = fdiv reassoc nsz arcp contract afn float %11, %6
  %13 = fptosi float %12 to i32
  %14 = tail call i32 @llvm.smin.i32(i32 %8, i32 %13)
  br label %15

15:                                               ; preds = %15, %1
  %.020.i = phi i32 [ 0, %1 ], [ %17, %15 ]
  %.019.in.i = phi i32 [ %14, %1 ], [ %.019.i, %15 ]
  %.019.i = lshr i32 %.019.in.i, 1
  %.pn.i = uitofp nneg i32 %.019.i to float
  %.0.i = fmul reassoc nsz arcp contract afn float %6, %.pn.i
  %16 = fcmp reassoc nsz arcp contract afn ogt float %.0.i, 0.000000e+00
  %17 = add nuw nsw i32 %.020.i, 1
  br i1 %16, label %15, label %.preheader.i

.preheader.i:                                     ; preds = %15
  %.not.i = icmp eq i32 %.020.i, 0
  br i1 %.not.i, label %_get_max_scale.exit, label %.lr.ph.i

.lr.ph.i:                                         ; preds = %.preheader.i
  %18 = uitofp i32 %14 to float
  br label %19

19:                                               ; preds = %24, %.lr.ph.i
  %.121.i = phi i32 [ %.020.i, %.lr.ph.i ], [ %25, %24 ]
  %20 = shl nuw i32 1, %.121.i
  %21 = sitofp i32 %20 to float
  %22 = fmul reassoc nsz arcp contract afn float %6, %21
  %23 = fcmp reassoc nsz arcp contract afn ult float %22, %18
  br i1 %23, label %_get_max_scale.exit, label %24

24:                                               ; preds = %19
  %25 = add nsw i32 %.121.i, -1
  %26 = icmp sgt i32 %.121.i, 1
  br i1 %26, label %19, label %_get_max_scale.exit

_get_max_scale.exit:                              ; preds = %19, %24, %.preheader.i
  %.1.lcssa.i = phi i32 [ 0, %.preheader.i ], [ %.121.i, %19 ], [ 0, %24 ]
  ret i32 %.1.lcssa.i
}